; Listing generated by Microsoft (R) Optimizing Compiler Version 19.27.29111.0 

include listing.inc

INCLUDELIB LIBCMT
INCLUDELIB OLDNAMES

PUBLIC	__local_stdio_printf_options
PUBLIC	_vfprintf_l
PUBLIC	printf
PUBLIC	?calc7@Calc@@SAI_K@Z				; Calc::calc7
PUBLIC	?mod@Calc@@SAEEE@Z				; Calc::mod
PUBLIC	?rot@Calc@@SAEEE@Z				; Calc::rot
PUBLIC	?rot@Calc@@SA_K_K0@Z				; Calc::rot
PUBLIC	main
PUBLIC	?_OptionsStorage@?1??__local_stdio_printf_options@@9@4_KA ; `__local_stdio_printf_options'::`2'::_OptionsStorage
PUBLIC	??_C@_07BCNJFGCC@a?5?$DN?5?$CFd?6@		; `string'
PUBLIC	??_C@_07JMFGFBMB@b?5?$DN?5?$CFd?6@		; `string'
PUBLIC	??_C@_09KHKHNBCK@c?5?$DN?5?$CFllu?6@		; `string'
PUBLIC	??_C@_09EFHLMKFD@d?5?$DN?5?$CFllu?6@		; `string'
PUBLIC	??_C@_09KKLJKBGN@e?5?$DN?5?$CFllu?6@		; `string'
PUBLIC	??_C@_07BIBMFPDL@f?5?$DN?5?$CFd?6@		; `string'
EXTRN	__acrt_iob_func:PROC
EXTRN	__stdio_common_vfprintf:PROC
;	COMDAT ?_OptionsStorage@?1??__local_stdio_printf_options@@9@4_KA
_BSS	SEGMENT
?_OptionsStorage@?1??__local_stdio_printf_options@@9@4_KA DQ 01H DUP (?) ; `__local_stdio_printf_options'::`2'::_OptionsStorage
_BSS	ENDS
;	COMDAT pdata
pdata	SEGMENT
$pdata$_vfprintf_l DD imagerel $LN3
	DD	imagerel $LN3+67
	DD	imagerel $unwind$_vfprintf_l
pdata	ENDS
;	COMDAT pdata
pdata	SEGMENT
$pdata$printf DD imagerel $LN3
	DD	imagerel $LN3+87
	DD	imagerel $unwind$printf
pdata	ENDS
;	COMDAT pdata
pdata	SEGMENT
$pdata$?calc7@Calc@@SAI_K@Z DD imagerel $LN3
	DD	imagerel $LN3+221
	DD	imagerel $unwind$?calc7@Calc@@SAI_K@Z
pdata	ENDS
;	COMDAT pdata
pdata	SEGMENT
$pdata$?rot@Calc@@SAEEE@Z DD imagerel $LN3
	DD	imagerel $LN3+59
	DD	imagerel $unwind$?rot@Calc@@SAEEE@Z
pdata	ENDS
pdata	SEGMENT
$pdata$main DD	imagerel $LN3
	DD	imagerel $LN3+63
	DD	imagerel $unwind$main
pdata	ENDS
;	COMDAT ??_C@_07BIBMFPDL@f?5?$DN?5?$CFd?6@
CONST	SEGMENT
??_C@_07BIBMFPDL@f?5?$DN?5?$CFd?6@ DB 'f = %d', 0aH, 00H ; `string'
CONST	ENDS
;	COMDAT ??_C@_09KKLJKBGN@e?5?$DN?5?$CFllu?6@
CONST	SEGMENT
??_C@_09KKLJKBGN@e?5?$DN?5?$CFllu?6@ DB 'e = %llu', 0aH, 00H ; `string'
CONST	ENDS
;	COMDAT ??_C@_09EFHLMKFD@d?5?$DN?5?$CFllu?6@
CONST	SEGMENT
??_C@_09EFHLMKFD@d?5?$DN?5?$CFllu?6@ DB 'd = %llu', 0aH, 00H ; `string'
CONST	ENDS
;	COMDAT ??_C@_09KHKHNBCK@c?5?$DN?5?$CFllu?6@
CONST	SEGMENT
??_C@_09KHKHNBCK@c?5?$DN?5?$CFllu?6@ DB 'c = %llu', 0aH, 00H ; `string'
CONST	ENDS
;	COMDAT ??_C@_07JMFGFBMB@b?5?$DN?5?$CFd?6@
CONST	SEGMENT
??_C@_07JMFGFBMB@b?5?$DN?5?$CFd?6@ DB 'b = %d', 0aH, 00H ; `string'
CONST	ENDS
;	COMDAT ??_C@_07BCNJFGCC@a?5?$DN?5?$CFd?6@
CONST	SEGMENT
??_C@_07BCNJFGCC@a?5?$DN?5?$CFd?6@ DB 'a = %d', 0aH, 00H ; `string'
CONST	ENDS
xdata	SEGMENT
$unwind$main DD	010d01H
	DD	0420dH
xdata	ENDS
;	COMDAT xdata
xdata	SEGMENT
$unwind$?rot@Calc@@SAEEE@Z DD 010c01H
	DD	0220cH
xdata	ENDS
;	COMDAT xdata
xdata	SEGMENT
$unwind$?calc7@Calc@@SAI_K@Z DD 010901H
	DD	0a209H
xdata	ENDS
;	COMDAT xdata
xdata	SEGMENT
$unwind$printf DD 011801H
	DD	06218H
xdata	ENDS
;	COMDAT xdata
xdata	SEGMENT
$unwind$_vfprintf_l DD 011801H
	DD	06218H
xdata	ENDS
; Function compile flags: /Odtp
_TEXT	SEGMENT
argc$ = 48
argv$ = 56
main	PROC
; File J:\dev\projects\z0\native\labs\metal\console\main.cpp
; Line 147
$LN3:
	mov	QWORD PTR [rsp+16], rdx
	mov	DWORD PTR [rsp+8], ecx
	sub	rsp, 40					; 00000028H
; Line 148
	mov	dl, 5
	mov	cl, 10
	call	?rot@Calc@@SAEEE@Z			; Calc::rot
; Line 149
	mov	dl, 5
	mov	cl, 10
	call	?mod@Calc@@SAEEE@Z			; Calc::mod
; Line 150
	mov	edx, 12
	mov	ecx, 289				; 00000121H
	call	?rot@Calc@@SA_K_K0@Z			; Calc::rot
; Line 151
	mov	ecx, 52039				; 0000cb47H
	call	?calc7@Calc@@SAI_K@Z			; Calc::calc7
; Line 153
	xor	eax, eax
	add	rsp, 40					; 00000028H
	ret	0
main	ENDP
_TEXT	ENDS
; Function compile flags: /Odtp
;	COMDAT ?rot@Calc@@SA_K_K0@Z
_TEXT	SEGMENT
value$ = 8
offset$ = 16
?rot@Calc@@SA_K_K0@Z PROC				; Calc::rot, COMDAT
; File J:\dev\projects\z0\native\labs\metal\console\main.cpp
; Line 91
	mov	QWORD PTR [rsp+16], rdx
	mov	QWORD PTR [rsp+8], rcx
; Line 92
	mov	rax, QWORD PTR offset$[rsp]
	movzx	ecx, al
	mov	rax, QWORD PTR value$[rsp]
	shr	rax, cl
	mov	rcx, QWORD PTR offset$[rsp]
	not	rcx
	and	rcx, 31
	mov	rdx, QWORD PTR value$[rsp]
	shl	rdx, cl
	mov	rcx, rdx
	or	rax, rcx
; Line 93
	ret	0
?rot@Calc@@SA_K_K0@Z ENDP				; Calc::rot
_TEXT	ENDS
; Function compile flags: /Odtp
;	COMDAT ?rot@Calc@@SAEEE@Z
_TEXT	SEGMENT
tv67 = 0
value$ = 32
offset$ = 40
?rot@Calc@@SAEEE@Z PROC					; Calc::rot, COMDAT
; File J:\dev\projects\z0\native\labs\metal\console\main.cpp
; Line 76
$LN3:
	mov	BYTE PTR [rsp+16], dl
	mov	BYTE PTR [rsp+8], cl
	sub	rsp, 24
; Line 77
	movzx	eax, BYTE PTR value$[rsp]
	movzx	ecx, BYTE PTR offset$[rsp]
	sar	eax, cl
	movzx	ecx, BYTE PTR value$[rsp]
	mov	DWORD PTR tv67[rsp], ecx
	movzx	edx, BYTE PTR offset$[rsp]
	not	edx
	and	edx, 31
	movzx	ecx, dl
	mov	edx, DWORD PTR tv67[rsp]
	shl	edx, cl
	mov	ecx, edx
	or	eax, ecx
; Line 78
	add	rsp, 24
	ret	0
?rot@Calc@@SAEEE@Z ENDP					; Calc::rot
_TEXT	ENDS
; Function compile flags: /Odtp
;	COMDAT ?mod@Calc@@SAEEE@Z
_TEXT	SEGMENT
x$ = 8
y$ = 16
?mod@Calc@@SAEEE@Z PROC					; Calc::mod, COMDAT
; File J:\dev\projects\z0\native\labs\metal\console\main.cpp
; Line 41
	mov	BYTE PTR [rsp+16], dl
	mov	BYTE PTR [rsp+8], cl
; Line 42
	movzx	eax, BYTE PTR x$[rsp]
	movzx	ecx, BYTE PTR y$[rsp]
	cdq
	idiv	ecx
	mov	eax, edx
; Line 43
	ret	0
?mod@Calc@@SAEEE@Z ENDP					; Calc::mod
_TEXT	ENDS
; Function compile flags: /Odtp
;	COMDAT ?calc7@Calc@@SAI_K@Z
_TEXT	SEGMENT
a$ = 32
b$ = 36
f$ = 40
c$ = 48
d$ = 56
e$ = 64
state$ = 96
?calc7@Calc@@SAI_K@Z PROC				; Calc::calc7, COMDAT
; File J:\dev\projects\z0\native\labs\metal\console\main.cpp
; Line 11
$LN3:
	mov	QWORD PTR [rsp+8], rcx
	sub	rsp, 88					; 00000058H
; Line 13
	mov	rax, QWORD PTR state$[rsp]
	shr	rax, 59					; 0000003bH
	mov	DWORD PTR a$[rsp], eax
; Line 14
	mov	edx, DWORD PTR a$[rsp]
	lea	rcx, OFFSET FLAT:??_C@_07BCNJFGCC@a?5?$DN?5?$CFd?6@
	call	printf
; Line 16
	mov	eax, DWORD PTR a$[rsp]
	add	eax, 5
	mov	DWORD PTR b$[rsp], eax
; Line 17
	mov	edx, DWORD PTR b$[rsp]
	lea	rcx, OFFSET FLAT:??_C@_07JMFGFBMB@b?5?$DN?5?$CFd?6@
	call	printf
; Line 19
	mov	eax, DWORD PTR b$[rsp]
	movzx	ecx, al
	mov	rax, QWORD PTR state$[rsp]
	shr	rax, cl
	mov	QWORD PTR c$[rsp], rax
; Line 20
	mov	rdx, QWORD PTR c$[rsp]
	lea	rcx, OFFSET FLAT:??_C@_09KHKHNBCK@c?5?$DN?5?$CFllu?6@
	call	printf
; Line 22
	mov	rax, QWORD PTR state$[rsp]
	mov	rcx, QWORD PTR c$[rsp]
	xor	rcx, rax
	mov	rax, rcx
	mov	QWORD PTR d$[rsp], rax
; Line 23
	mov	rdx, QWORD PTR d$[rsp]
	lea	rcx, OFFSET FLAT:??_C@_09EFHLMKFD@d?5?$DN?5?$CFllu?6@
	call	printf
; Line 25
	mov	rax, -5840758589994634535		; aef17502108ef2d9H
	mov	rcx, QWORD PTR d$[rsp]
	imul	rcx, rax
	mov	rax, rcx
	shr	rax, 32					; 00000020H
	mov	QWORD PTR e$[rsp], rax
; Line 26
	mov	rdx, QWORD PTR e$[rsp]
	lea	rcx, OFFSET FLAT:??_C@_09KKLJKBGN@e?5?$DN?5?$CFllu?6@
	call	printf
; Line 28
	mov	eax, DWORD PTR e$[rsp]
	mov	DWORD PTR f$[rsp], eax
; Line 29
	mov	edx, DWORD PTR f$[rsp]
	lea	rcx, OFFSET FLAT:??_C@_07BIBMFPDL@f?5?$DN?5?$CFd?6@
	call	printf
; Line 31
	mov	eax, DWORD PTR f$[rsp]
; Line 32
	add	rsp, 88					; 00000058H
	ret	0
?calc7@Calc@@SAI_K@Z ENDP				; Calc::calc7
_TEXT	ENDS
; Function compile flags: /Odtp
;	COMDAT printf
_TEXT	SEGMENT
_Result$ = 32
_ArgList$ = 40
_Format$ = 64
printf	PROC						; COMDAT
; File C:\Program Files (x86)\Windows Kits\10\include\10.0.18362.0\ucrt\stdio.h
; Line 954
$LN3:
	mov	QWORD PTR [rsp+8], rcx
	mov	QWORD PTR [rsp+16], rdx
	mov	QWORD PTR [rsp+24], r8
	mov	QWORD PTR [rsp+32], r9
	sub	rsp, 56					; 00000038H
; Line 957
	lea	rax, QWORD PTR _Format$[rsp+8]
	mov	QWORD PTR _ArgList$[rsp], rax
; Line 958
	mov	ecx, 1
	call	__acrt_iob_func
	mov	r9, QWORD PTR _ArgList$[rsp]
	xor	r8d, r8d
	mov	rdx, QWORD PTR _Format$[rsp]
	mov	rcx, rax
	call	_vfprintf_l
	mov	DWORD PTR _Result$[rsp], eax
; Line 959
	mov	QWORD PTR _ArgList$[rsp], 0
; Line 960
	mov	eax, DWORD PTR _Result$[rsp]
; Line 961
	add	rsp, 56					; 00000038H
	ret	0
printf	ENDP
_TEXT	ENDS
; Function compile flags: /Odtp
;	COMDAT _vfprintf_l
_TEXT	SEGMENT
_Stream$ = 64
_Format$ = 72
_Locale$ = 80
_ArgList$ = 88
_vfprintf_l PROC					; COMDAT
; File C:\Program Files (x86)\Windows Kits\10\include\10.0.18362.0\ucrt\stdio.h
; Line 642
$LN3:
	mov	QWORD PTR [rsp+32], r9
	mov	QWORD PTR [rsp+24], r8
	mov	QWORD PTR [rsp+16], rdx
	mov	QWORD PTR [rsp+8], rcx
	sub	rsp, 56					; 00000038H
; Line 643
	call	__local_stdio_printf_options
	mov	rcx, QWORD PTR _ArgList$[rsp]
	mov	QWORD PTR [rsp+32], rcx
	mov	r9, QWORD PTR _Locale$[rsp]
	mov	r8, QWORD PTR _Format$[rsp]
	mov	rdx, QWORD PTR _Stream$[rsp]
	mov	rcx, QWORD PTR [rax]
	call	__stdio_common_vfprintf
; Line 644
	add	rsp, 56					; 00000038H
	ret	0
_vfprintf_l ENDP
_TEXT	ENDS
; Function compile flags: /Odtp
;	COMDAT __local_stdio_printf_options
_TEXT	SEGMENT
__local_stdio_printf_options PROC			; COMDAT
; File C:\Program Files (x86)\Windows Kits\10\include\10.0.18362.0\ucrt\corecrt_stdio_config.h
; Line 88
	lea	rax, OFFSET FLAT:?_OptionsStorage@?1??__local_stdio_printf_options@@9@4_KA ; `__local_stdio_printf_options'::`2'::_OptionsStorage
; Line 89
	ret	0
__local_stdio_printf_options ENDP
_TEXT	ENDS
END
